	.text
	.syntax unified
	.eabi_attribute	67, "2.09"	@ Tag_conformance
	.cpu	cortex-m4
	.eabi_attribute	6, 13	@ Tag_CPU_arch
	.eabi_attribute	7, 77	@ Tag_CPU_arch_profile
	.eabi_attribute	8, 0	@ Tag_ARM_ISA_use
	.eabi_attribute	9, 2	@ Tag_THUMB_ISA_use
	.fpu	fpv4-sp-d16
	.eabi_attribute	27, 1	@ Tag_ABI_HardFP_use
	.eabi_attribute	36, 1	@ Tag_FP_HP_extension
	.eabi_attribute	34, 1	@ Tag_CPU_unaligned_access
	.eabi_attribute	17, 1	@ Tag_ABI_PCS_GOT_use
	.eabi_attribute	20, 2	@ Tag_ABI_FP_denormal
	.eabi_attribute	21, 0	@ Tag_ABI_FP_exceptions
	.eabi_attribute	23, 1	@ Tag_ABI_FP_number_model
	.eabi_attribute	24, 1	@ Tag_ABI_align_needed
	.eabi_attribute	25, 1	@ Tag_ABI_align_preserved
	.eabi_attribute	28, 1	@ Tag_ABI_VFP_args
	.eabi_attribute	38, 1	@ Tag_ABI_FP_16bit_format
	.eabi_attribute	18, 2	@ Tag_ABI_PCS_wchar_t
	.eabi_attribute	26, 1	@ Tag_ABI_enum_size
	.eabi_attribute	14, 0	@ Tag_ABI_PCS_R9_use
	.file	"stm32f3xx_hal_gpio.c"
	.file	1 "D:\\Altium\\Zeinali\\GebraBit\\GebraBit\\GebraBit\\Sofwares_Drivers\\IAM-20381\\Keil\\V1-29-01-2023\\GebraBit_IAM20381_STM32F303_V1\\MDK-ARM" "../Drivers/STM32F3xx_HAL_Driver/Inc\\stm32f3xx_hal_gpio.h"
	.file	2 "D:\\Altium\\Zeinali\\GebraBit\\GebraBit\\GebraBit\\Sofwares_Drivers\\IAM-20381\\Keil\\V1-29-01-2023\\GebraBit_IAM20381_STM32F303_V1\\MDK-ARM" "../Drivers/STM32F3xx_HAL_Driver/Inc/stm32f3xx_hal_def.h"
	.file	3 "C:\\Keil_v5\\ARM\\ARMCLANG\\Bin\\..\\include" "stdint.h"
	.file	4 "D:\\Altium\\Zeinali\\GebraBit\\GebraBit\\GebraBit\\Sofwares_Drivers\\IAM-20381\\Keil\\V1-29-01-2023\\GebraBit_IAM20381_STM32F303_V1\\MDK-ARM" "../Drivers/CMSIS/Device/ST/STM32F3xx/Include/stm32f303xc.h"
	.section	.text.HAL_GPIO_Init,"ax",%progbits
	.hidden	HAL_GPIO_Init                   @ -- Begin function HAL_GPIO_Init
	.globl	HAL_GPIO_Init
	.p2align	2
	.type	HAL_GPIO_Init,%function
	.code	16                              @ @HAL_GPIO_Init
	.thumb_func
HAL_GPIO_Init:
.Lfunc_begin0:
	.file	5 "D:\\Altium\\Zeinali\\GebraBit\\GebraBit\\GebraBit\\Sofwares_Drivers\\IAM-20381\\Keil\\V1-29-01-2023\\GebraBit_IAM20381_STM32F303_V1\\MDK-ARM" "../Drivers/STM32F3xx_HAL_Driver/Src/stm32f3xx_hal_gpio.c"
	.loc	5 172 0                         @ ../Drivers/STM32F3xx_HAL_Driver/Src/stm32f3xx_hal_gpio.c:172:0
	.fnstart
	.cfi_sections .debug_frame
	.cfi_startproc
@ %bb.0:
	@DEBUG_VALUE: HAL_GPIO_Init:GPIOx <- $r0
	@DEBUG_VALUE: HAL_GPIO_Init:GPIO_Init <- $r1
	.save	{r4, r5, r6, r7, r8, r9, r10, r11, lr}
	push.w	{r4, r5, r6, r7, r8, r9, r10, r11, lr}
	.cfi_def_cfa_offset 36
	.cfi_offset lr, -4
	.cfi_offset r11, -8
	.cfi_offset r10, -12
	.cfi_offset r9, -16
	.cfi_offset r8, -20
	.cfi_offset r7, -24
	.cfi_offset r6, -28
	.cfi_offset r5, -32
	.cfi_offset r4, -36
	.pad	#16
	sub	sp, #16
	.cfi_def_cfa_offset 52
	mov	lr, r1
.Ltmp0:
	@DEBUG_VALUE: HAL_GPIO_Init:GPIO_Init <- $lr
	@DEBUG_VALUE: HAL_GPIO_Init:position <- 0
	@DEBUG_VALUE: HAL_GPIO_Init:GPIO_Init <- $lr
	movw	r2, #4096
	movt	r2, #18432
.Ltmp1:
	.loc	5 183 23 prologue_end           @ ../Drivers/STM32F3xx_HAL_Driver/Src/stm32f3xx_hal_gpio.c:183:23
	ldr.w	r4, [lr]
	movs	r1, #5
	cmp	r0, r2
	str	r0, [sp, #4]                    @ 4-byte Spill
.Ltmp2:
	@DEBUG_VALUE: HAL_GPIO_Init:GPIOx <- [DW_OP_plus_uconst 4] [$sp+0]
	@DEBUG_VALUE: HAL_GPIO_Init:GPIOx <- [DW_OP_plus_uconst 4] [$sp+0]
	.loc	5 0 23 is_stmt 0                @ ../Drivers/STM32F3xx_HAL_Driver/Src/stm32f3xx_hal_gpio.c:0:23
	it	eq
	moveq	r1, #4
	.loc	5 183 3                         @ ../Drivers/STM32F3xx_HAL_Driver/Src/stm32f3xx_hal_gpio.c:183:3
	cmp	r4, #0
	str	r1, [sp]                        @ 4-byte Spill
	beq.w	.LBB0_12
.Ltmp3:
@ %bb.1:
	@DEBUG_VALUE: HAL_GPIO_Init:GPIOx <- [DW_OP_plus_uconst 4] [$sp+0]
	@DEBUG_VALUE: HAL_GPIO_Init:position <- 0
	@DEBUG_VALUE: HAL_GPIO_Init:GPIO_Init <- $lr
	.loc	5 0 3                           @ ../Drivers/STM32F3xx_HAL_Driver/Src/stm32f3xx_hal_gpio.c:0:3
	ldr	r0, [sp, #4]                    @ 4-byte Reload
	movs	r5, #0
	add.w	r2, r0, #-1207959552
	ror.w	r3, r2, #10
	ldr	r0, [sp]                        @ 4-byte Reload
	movs	r7, #1
	movs	r6, #0
	mov.w	r8, #0
	cmp	r3, #4
	it	lo
	movlo	r0, r3
	str	r0, [sp]                        @ 4-byte Spill
	str.w	lr, [sp, #8]                    @ 4-byte Spill
	b	.LBB0_3
.Ltmp4:
	.p2align	2
.LBB0_2:                                @   in Loop: Header=BB0_3 Depth=1
	@DEBUG_VALUE: HAL_GPIO_Init:iocurrent <- $r9
	@DEBUG_VALUE: HAL_GPIO_Init:position <- $r8
	@DEBUG_VALUE: HAL_GPIO_Init:GPIOx <- [DW_OP_plus_uconst 4] [$sp+0]
	.loc	5 183 23                        @ ../Drivers/STM32F3xx_HAL_Driver/Src/stm32f3xx_hal_gpio.c:183:23
	ldr.w	r4, [lr]
.Ltmp5:
	.loc	5 290 13 is_stmt 1              @ ../Drivers/STM32F3xx_HAL_Driver/Src/stm32f3xx_hal_gpio.c:290:13
	add.w	r8, r8, #1
.Ltmp6:
	@DEBUG_VALUE: HAL_GPIO_Init:position <- $r8
	.loc	5 183 28                        @ ../Drivers/STM32F3xx_HAL_Driver/Src/stm32f3xx_hal_gpio.c:183:28
	lsrs.w	r1, r4, r7
	.loc	5 183 3 is_stmt 0               @ ../Drivers/STM32F3xx_HAL_Driver/Src/stm32f3xx_hal_gpio.c:183:3
	add.w	r6, r6, #2
	add.w	r7, r7, #1
	add.w	r5, r5, #4
	beq.w	.LBB0_12
.Ltmp7:
.LBB0_3:                                @ =>This Inner Loop Header: Depth=1
	@DEBUG_VALUE: HAL_GPIO_Init:GPIOx <- [DW_OP_plus_uconst 4] [$sp+0]
	@DEBUG_VALUE: HAL_GPIO_Init:position <- $r8
	.loc	5 186 41 is_stmt 1              @ ../Drivers/STM32F3xx_HAL_Driver/Src/stm32f3xx_hal_gpio.c:186:41
	sub.w	r10, r7, #1
	movs	r0, #1
	lsl.w	r3, r0, r10
	.loc	5 186 34 is_stmt 0              @ ../Drivers/STM32F3xx_HAL_Driver/Src/stm32f3xx_hal_gpio.c:186:34
	ands.w	r9, r4, r3
.Ltmp8:
	@DEBUG_VALUE: HAL_GPIO_Init:iocurrent <- $r9
	.loc	5 188 9 is_stmt 1               @ ../Drivers/STM32F3xx_HAL_Driver/Src/stm32f3xx_hal_gpio.c:188:9
	beq	.LBB0_2
.Ltmp9:
@ %bb.4:                                @   in Loop: Header=BB0_3 Depth=1
	@DEBUG_VALUE: HAL_GPIO_Init:iocurrent <- $r9
	@DEBUG_VALUE: HAL_GPIO_Init:position <- $r8
	@DEBUG_VALUE: HAL_GPIO_Init:GPIOx <- [DW_OP_plus_uconst 4] [$sp+0]
	.loc	5 192 23                        @ ../Drivers/STM32F3xx_HAL_Driver/Src/stm32f3xx_hal_gpio.c:192:23
	ldr.w	r12, [lr, #4]
	.loc	5 192 28 is_stmt 0              @ ../Drivers/STM32F3xx_HAL_Driver/Src/stm32f3xx_hal_gpio.c:192:28
	and	r11, r12, #3
	.loc	5 192 57                        @ ../Drivers/STM32F3xx_HAL_Driver/Src/stm32f3xx_hal_gpio.c:192:57
	sub.w	r4, r11, #1
	cmp	r4, #1
	bhi	.LBB0_6
.Ltmp10:
@ %bb.5:                                @   in Loop: Header=BB0_3 Depth=1
	@DEBUG_VALUE: HAL_GPIO_Init:iocurrent <- $r9
	@DEBUG_VALUE: HAL_GPIO_Init:position <- $r8
	@DEBUG_VALUE: HAL_GPIO_Init:GPIOx <- [DW_OP_plus_uconst 4] [$sp+0]
	.loc	5 0 57                          @ ../Drivers/STM32F3xx_HAL_Driver/Src/stm32f3xx_hal_gpio.c:0:57
	ldr	r0, [sp, #4]                    @ 4-byte Reload
	mov	r4, lr
.Ltmp11:
	@DEBUG_VALUE: HAL_GPIO_Init:GPIO_Init <- $r4
	.loc	5 197 23 is_stmt 1              @ ../Drivers/STM32F3xx_HAL_Driver/Src/stm32f3xx_hal_gpio.c:197:23
	ldr	r1, [r0, #8]
.Ltmp12:
	@DEBUG_VALUE: HAL_GPIO_Init:temp <- $r1
	.loc	5 198 42                        @ ../Drivers/STM32F3xx_HAL_Driver/Src/stm32f3xx_hal_gpio.c:198:42
	movs	r2, #3
	.loc	5 199 29                        @ ../Drivers/STM32F3xx_HAL_Driver/Src/stm32f3xx_hal_gpio.c:199:29
	ldr	r4, [r4, #12]
.Ltmp13:
	@DEBUG_VALUE: HAL_GPIO_Init:GPIO_Init <- [DW_OP_LLVM_entry_value 1] $r1
	.loc	5 198 42                        @ ../Drivers/STM32F3xx_HAL_Driver/Src/stm32f3xx_hal_gpio.c:198:42
	lsls	r2, r6
	.loc	5 198 14 is_stmt 0              @ ../Drivers/STM32F3xx_HAL_Driver/Src/stm32f3xx_hal_gpio.c:198:14
	bics	r1, r2
.Ltmp14:
	@DEBUG_VALUE: HAL_GPIO_Init:temp <- $r1
	.loc	5 199 35 is_stmt 1              @ ../Drivers/STM32F3xx_HAL_Driver/Src/stm32f3xx_hal_gpio.c:199:35
	lsls	r4, r6
	.loc	5 199 14 is_stmt 0              @ ../Drivers/STM32F3xx_HAL_Driver/Src/stm32f3xx_hal_gpio.c:199:14
	orrs	r1, r4
.Ltmp15:
	@DEBUG_VALUE: HAL_GPIO_Init:temp <- $r1
	.loc	5 200 24 is_stmt 1              @ ../Drivers/STM32F3xx_HAL_Driver/Src/stm32f3xx_hal_gpio.c:200:24
	str	r1, [r0, #8]
	.loc	5 203 23                        @ ../Drivers/STM32F3xx_HAL_Driver/Src/stm32f3xx_hal_gpio.c:203:23
	ldr	r1, [r0, #4]
.Ltmp16:
	@DEBUG_VALUE: HAL_GPIO_Init:temp <- $r1
	.loc	5 198 55                        @ ../Drivers/STM32F3xx_HAL_Driver/Src/stm32f3xx_hal_gpio.c:198:55
	lsl.w	lr, r8, #1
	.loc	5 204 14                        @ ../Drivers/STM32F3xx_HAL_Driver/Src/stm32f3xx_hal_gpio.c:204:14
	bics	r1, r3
.Ltmp17:
	@DEBUG_VALUE: HAL_GPIO_Init:temp <- $r1
	.loc	5 205 51                        @ ../Drivers/STM32F3xx_HAL_Driver/Src/stm32f3xx_hal_gpio.c:205:51
	ubfx	r3, r12, #4, #1
	.loc	5 205 71 is_stmt 0              @ ../Drivers/STM32F3xx_HAL_Driver/Src/stm32f3xx_hal_gpio.c:205:71
	lsl.w	r3, r3, r10
	mov	r4, r0
	.loc	5 198 17 is_stmt 1              @ ../Drivers/STM32F3xx_HAL_Driver/Src/stm32f3xx_hal_gpio.c:198:17
	mvns	r0, r2
	.loc	5 205 14                        @ ../Drivers/STM32F3xx_HAL_Driver/Src/stm32f3xx_hal_gpio.c:205:14
	orrs	r1, r3
.Ltmp18:
	@DEBUG_VALUE: HAL_GPIO_Init:temp <- $r1
	.loc	5 206 23                        @ ../Drivers/STM32F3xx_HAL_Driver/Src/stm32f3xx_hal_gpio.c:206:23
	str	r1, [r4, #4]
	b	.LBB0_8
.Ltmp19:
	.p2align	2
.LBB0_6:                                @   in Loop: Header=BB0_3 Depth=1
	@DEBUG_VALUE: HAL_GPIO_Init:iocurrent <- $r9
	@DEBUG_VALUE: HAL_GPIO_Init:position <- $r8
	@DEBUG_VALUE: HAL_GPIO_Init:GPIOx <- [DW_OP_plus_uconst 4] [$sp+0]
	.loc	5 0 23 is_stmt 0                @ ../Drivers/STM32F3xx_HAL_Driver/Src/stm32f3xx_hal_gpio.c:0:23
	movs	r1, #3
	lsls	r1, r6
	ldr	r4, [sp, #4]                    @ 4-byte Reload
	mvns	r0, r1
	.loc	5 209 10 is_stmt 1              @ ../Drivers/STM32F3xx_HAL_Driver/Src/stm32f3xx_hal_gpio.c:209:10
	cmp.w	r11, #3
	mov	lr, r6
.Ltmp20:
	@DEBUG_VALUE: HAL_GPIO_Init:GPIO_Init <- [DW_OP_LLVM_entry_value 1] $r1
	bne	.LBB0_8
.Ltmp21:
@ %bb.7:                                @   in Loop: Header=BB0_3 Depth=1
	@DEBUG_VALUE: HAL_GPIO_Init:iocurrent <- $r9
	@DEBUG_VALUE: HAL_GPIO_Init:position <- $r8
	@DEBUG_VALUE: HAL_GPIO_Init:GPIOx <- [DW_OP_plus_uconst 4] [$sp+0]
	.loc	5 0 10 is_stmt 0                @ ../Drivers/STM32F3xx_HAL_Driver/Src/stm32f3xx_hal_gpio.c:0:10
	mov	lr, r6
	mov.w	r11, #3
	b	.LBB0_10
.Ltmp22:
	.p2align	2
.LBB0_8:                                @   in Loop: Header=BB0_3 Depth=1
	@DEBUG_VALUE: HAL_GPIO_Init:iocurrent <- $r9
	@DEBUG_VALUE: HAL_GPIO_Init:position <- $r8
	@DEBUG_VALUE: HAL_GPIO_Init:GPIOx <- [DW_OP_plus_uconst 4] [$sp+0]
	.loc	5 215 23 is_stmt 1              @ ../Drivers/STM32F3xx_HAL_Driver/Src/stm32f3xx_hal_gpio.c:215:23
	ldr	r1, [r4, #12]
.Ltmp23:
	@DEBUG_VALUE: HAL_GPIO_Init:temp <- $r1
	.loc	5 0 23 is_stmt 0                @ ../Drivers/STM32F3xx_HAL_Driver/Src/stm32f3xx_hal_gpio.c:0:23
	ldr	r2, [sp, #8]                    @ 4-byte Reload
	.loc	5 216 14 is_stmt 1              @ ../Drivers/STM32F3xx_HAL_Driver/Src/stm32f3xx_hal_gpio.c:216:14
	ands	r1, r0
.Ltmp24:
	@DEBUG_VALUE: HAL_GPIO_Init:temp <- $r1
	.loc	5 217 30                        @ ../Drivers/STM32F3xx_HAL_Driver/Src/stm32f3xx_hal_gpio.c:217:30
	ldr	r3, [r2, #8]
.Ltmp25:
	.loc	5 223 10                        @ ../Drivers/STM32F3xx_HAL_Driver/Src/stm32f3xx_hal_gpio.c:223:10
	cmp.w	r11, #2
.Ltmp26:
	.loc	5 217 36                        @ ../Drivers/STM32F3xx_HAL_Driver/Src/stm32f3xx_hal_gpio.c:217:36
	lsl.w	r3, r3, lr
	.loc	5 217 14 is_stmt 0              @ ../Drivers/STM32F3xx_HAL_Driver/Src/stm32f3xx_hal_gpio.c:217:14
	orr.w	r1, r1, r3
.Ltmp27:
	@DEBUG_VALUE: HAL_GPIO_Init:temp <- $r1
	.loc	5 218 22 is_stmt 1              @ ../Drivers/STM32F3xx_HAL_Driver/Src/stm32f3xx_hal_gpio.c:218:22
	str	r1, [r4, #12]
	bne	.LBB0_10
.Ltmp28:
@ %bb.9:                                @   in Loop: Header=BB0_3 Depth=1
	@DEBUG_VALUE: HAL_GPIO_Init:temp <- $r1
	@DEBUG_VALUE: HAL_GPIO_Init:iocurrent <- $r9
	@DEBUG_VALUE: HAL_GPIO_Init:position <- $r8
	@DEBUG_VALUE: HAL_GPIO_Init:GPIOx <- [DW_OP_plus_uconst 4] [$sp+0]
	.loc	5 230 36                        @ ../Drivers/STM32F3xx_HAL_Driver/Src/stm32f3xx_hal_gpio.c:230:36
	mvn	r1, #3
.Ltmp29:
	and.w	r1, r1, r10, lsr #1
	.loc	5 230 16 is_stmt 0              @ ../Drivers/STM32F3xx_HAL_Driver/Src/stm32f3xx_hal_gpio.c:230:16
	add	r1, r4
	.loc	5 231 47 is_stmt 1              @ ../Drivers/STM32F3xx_HAL_Driver/Src/stm32f3xx_hal_gpio.c:231:47
	and	r4, r5, #28
	.loc	5 231 24 is_stmt 0              @ ../Drivers/STM32F3xx_HAL_Driver/Src/stm32f3xx_hal_gpio.c:231:24
	movs	r3, #15
	.loc	5 230 16 is_stmt 1              @ ../Drivers/STM32F3xx_HAL_Driver/Src/stm32f3xx_hal_gpio.c:230:16
	ldr.w	r12, [r1, #32]
.Ltmp30:
	@DEBUG_VALUE: HAL_GPIO_Init:temp <- $r12
	.loc	5 231 24                        @ ../Drivers/STM32F3xx_HAL_Driver/Src/stm32f3xx_hal_gpio.c:231:24
	lsl.w	r11, r3, r4
	.loc	5 232 30                        @ ../Drivers/STM32F3xx_HAL_Driver/Src/stm32f3xx_hal_gpio.c:232:30
	ldr	r3, [r2, #16]
	.loc	5 231 14                        @ ../Drivers/STM32F3xx_HAL_Driver/Src/stm32f3xx_hal_gpio.c:231:14
	bic.w	r12, r12, r11
.Ltmp31:
	@DEBUG_VALUE: HAL_GPIO_Init:temp <- $r12
	.loc	5 232 41                        @ ../Drivers/STM32F3xx_HAL_Driver/Src/stm32f3xx_hal_gpio.c:232:41
	lsls	r3, r4
	.loc	5 232 14 is_stmt 0              @ ../Drivers/STM32F3xx_HAL_Driver/Src/stm32f3xx_hal_gpio.c:232:14
	orr.w	r3, r3, r12
.Ltmp32:
	@DEBUG_VALUE: HAL_GPIO_Init:temp <- $r3
	.loc	5 0 14                          @ ../Drivers/STM32F3xx_HAL_Driver/Src/stm32f3xx_hal_gpio.c:0:14
	ldr	r4, [sp, #4]                    @ 4-byte Reload
	.loc	5 233 36 is_stmt 1              @ ../Drivers/STM32F3xx_HAL_Driver/Src/stm32f3xx_hal_gpio.c:233:36
	str	r3, [r1, #32]
.Ltmp33:
	.loc	5 239 28                        @ ../Drivers/STM32F3xx_HAL_Driver/Src/stm32f3xx_hal_gpio.c:239:28
	ldr.w	r12, [r2, #4]
	.loc	5 239 33 is_stmt 0              @ ../Drivers/STM32F3xx_HAL_Driver/Src/stm32f3xx_hal_gpio.c:239:33
	and	r11, r12, #3
.Ltmp34:
.LBB0_10:                               @   in Loop: Header=BB0_3 Depth=1
	@DEBUG_VALUE: HAL_GPIO_Init:iocurrent <- $r9
	@DEBUG_VALUE: HAL_GPIO_Init:position <- $r8
	@DEBUG_VALUE: HAL_GPIO_Init:GPIOx <- [DW_OP_plus_uconst 4] [$sp+0]
	.loc	5 237 21 is_stmt 1              @ ../Drivers/STM32F3xx_HAL_Driver/Src/stm32f3xx_hal_gpio.c:237:21
	ldr	r1, [r4]
.Ltmp35:
	@DEBUG_VALUE: HAL_GPIO_Init:temp <- $r1
	.loc	5 239 46                        @ ../Drivers/STM32F3xx_HAL_Driver/Src/stm32f3xx_hal_gpio.c:239:46
	lsl.w	r2, r11, lr
	.loc	5 238 12                        @ ../Drivers/STM32F3xx_HAL_Driver/Src/stm32f3xx_hal_gpio.c:238:12
	ands	r1, r0
.Ltmp36:
	@DEBUG_VALUE: HAL_GPIO_Init:temp <- $r1
	.loc	5 239 12                        @ ../Drivers/STM32F3xx_HAL_Driver/Src/stm32f3xx_hal_gpio.c:239:12
	orrs	r1, r2
.Ltmp37:
	@DEBUG_VALUE: HAL_GPIO_Init:temp <- $r1
	.loc	5 240 20                        @ ../Drivers/STM32F3xx_HAL_Driver/Src/stm32f3xx_hal_gpio.c:240:20
	str	r1, [r4]
	ldr.w	lr, [sp, #8]                    @ 4-byte Reload
	.loc	5 244 10                        @ ../Drivers/STM32F3xx_HAL_Driver/Src/stm32f3xx_hal_gpio.c:244:10
	tst.w	r12, #196608
	beq	.LBB0_2
.Ltmp38:
@ %bb.11:                               @   in Loop: Header=BB0_3 Depth=1
	@DEBUG_VALUE: HAL_GPIO_Init:temp <- $r1
	@DEBUG_VALUE: HAL_GPIO_Init:iocurrent <- $r9
	@DEBUG_VALUE: HAL_GPIO_Init:position <- $r8
	@DEBUG_VALUE: HAL_GPIO_Init:GPIOx <- [DW_OP_plus_uconst 4] [$sp+0]
	.loc	5 0 10 is_stmt 0                @ ../Drivers/STM32F3xx_HAL_Driver/Src/stm32f3xx_hal_gpio.c:0:10
	movw	r0, #4120
	movt	r0, #16386
.Ltmp39:
	.loc	5 247 9 is_stmt 1               @ ../Drivers/STM32F3xx_HAL_Driver/Src/stm32f3xx_hal_gpio.c:247:9
	ldr	r1, [r0]
.Ltmp40:
	.loc	5 0 9 is_stmt 0                 @ ../Drivers/STM32F3xx_HAL_Driver/Src/stm32f3xx_hal_gpio.c:0:9
	movw	r12, #1024
	.loc	5 247 9                         @ ../Drivers/STM32F3xx_HAL_Driver/Src/stm32f3xx_hal_gpio.c:247:9
	orr	r1, r1, #1
	str	r1, [r0]
	ldr	r1, [r0]
	movt	r12, #16385
	and	r1, r1, #1
	str	r1, [sp, #12]
	ldr	r1, [sp, #12]
.Ltmp41:
	.loc	5 249 40 is_stmt 1              @ ../Drivers/STM32F3xx_HAL_Driver/Src/stm32f3xx_hal_gpio.c:249:40
	bic	r1, r10, #3
	movw	r10, #64520
	.loc	5 249 16 is_stmt 0              @ ../Drivers/STM32F3xx_HAL_Driver/Src/stm32f3xx_hal_gpio.c:249:16
	add	r1, r12
	movt	r10, #65535
	.loc	5 250 33 is_stmt 1              @ ../Drivers/STM32F3xx_HAL_Driver/Src/stm32f3xx_hal_gpio.c:250:33
	and	r3, r5, #12
	.loc	5 250 26 is_stmt 0              @ ../Drivers/STM32F3xx_HAL_Driver/Src/stm32f3xx_hal_gpio.c:250:26
	movs	r0, #15
	.loc	5 249 16 is_stmt 1              @ ../Drivers/STM32F3xx_HAL_Driver/Src/stm32f3xx_hal_gpio.c:249:16
	ldr.w	r2, [r1, r10]
.Ltmp42:
	@DEBUG_VALUE: HAL_GPIO_Init:temp <- $r2
	.loc	5 250 26                        @ ../Drivers/STM32F3xx_HAL_Driver/Src/stm32f3xx_hal_gpio.c:250:26
	lsl.w	r4, r0, r3
	.loc	5 251 40                        @ ../Drivers/STM32F3xx_HAL_Driver/Src/stm32f3xx_hal_gpio.c:251:40
	ldr	r0, [sp]                        @ 4-byte Reload
	.loc	5 250 14                        @ ../Drivers/STM32F3xx_HAL_Driver/Src/stm32f3xx_hal_gpio.c:250:14
	bics	r2, r4
.Ltmp43:
	@DEBUG_VALUE: HAL_GPIO_Init:temp <- $r2
	.loc	5 251 40                        @ ../Drivers/STM32F3xx_HAL_Driver/Src/stm32f3xx_hal_gpio.c:251:40
	lsl.w	r3, r0, r3
	.loc	5 251 14 is_stmt 0              @ ../Drivers/STM32F3xx_HAL_Driver/Src/stm32f3xx_hal_gpio.c:251:14
	orrs	r2, r3
.Ltmp44:
	@DEBUG_VALUE: HAL_GPIO_Init:temp <- $r2
	.loc	5 252 40 is_stmt 1              @ ../Drivers/STM32F3xx_HAL_Driver/Src/stm32f3xx_hal_gpio.c:252:40
	str.w	r2, [r1, r10]
	.loc	5 255 22                        @ ../Drivers/STM32F3xx_HAL_Driver/Src/stm32f3xx_hal_gpio.c:255:22
	ldr.w	r1, [r12]
.Ltmp45:
	@DEBUG_VALUE: HAL_GPIO_Init:temp <- undef
	.loc	5 257 24                        @ ../Drivers/STM32F3xx_HAL_Driver/Src/stm32f3xx_hal_gpio.c:257:24
	ldr.w	r2, [lr, #4]
	orr.w	r3, r1, r9
.Ltmp46:
	.loc	5 257 12 is_stmt 0              @ ../Drivers/STM32F3xx_HAL_Driver/Src/stm32f3xx_hal_gpio.c:257:12
	lsls	r4, r2, #15
	it	pl
	bicpl.w	r3, r1, r9
.Ltmp47:
	@DEBUG_VALUE: HAL_GPIO_Init:temp <- $r3
	.loc	5 261 19 is_stmt 1              @ ../Drivers/STM32F3xx_HAL_Driver/Src/stm32f3xx_hal_gpio.c:261:19
	str.w	r3, [r12]
	.loc	5 263 22                        @ ../Drivers/STM32F3xx_HAL_Driver/Src/stm32f3xx_hal_gpio.c:263:22
	ldr.w	r1, [r12, #4]
.Ltmp48:
	@DEBUG_VALUE: HAL_GPIO_Init:temp <- undef
	.loc	5 265 12                        @ ../Drivers/STM32F3xx_HAL_Driver/Src/stm32f3xx_hal_gpio.c:265:12
	lsls	r4, r2, #14
	orr.w	r3, r1, r9
	it	pl
	bicpl.w	r3, r1, r9
.Ltmp49:
	@DEBUG_VALUE: HAL_GPIO_Init:temp <- $r3
	.loc	5 269 19                        @ ../Drivers/STM32F3xx_HAL_Driver/Src/stm32f3xx_hal_gpio.c:269:19
	str.w	r3, [r12, #4]
	.loc	5 272 22                        @ ../Drivers/STM32F3xx_HAL_Driver/Src/stm32f3xx_hal_gpio.c:272:22
	ldr.w	r1, [r12, #8]
.Ltmp50:
	@DEBUG_VALUE: HAL_GPIO_Init:temp <- undef
	.loc	5 0 22 is_stmt 0                @ ../Drivers/STM32F3xx_HAL_Driver/Src/stm32f3xx_hal_gpio.c:0:22
	movw	r0, #1036
	.loc	5 274 12 is_stmt 1              @ ../Drivers/STM32F3xx_HAL_Driver/Src/stm32f3xx_hal_gpio.c:274:12
	orr.w	r3, r1, r9
	lsls	r4, r2, #11
	it	pl
	bicpl.w	r3, r1, r9
.Ltmp51:
	@DEBUG_VALUE: HAL_GPIO_Init:temp <- $r3
	.loc	5 278 20                        @ ../Drivers/STM32F3xx_HAL_Driver/Src/stm32f3xx_hal_gpio.c:278:20
	str.w	r3, [r12, #8]
	movt	r0, #16385
	.loc	5 280 22                        @ ../Drivers/STM32F3xx_HAL_Driver/Src/stm32f3xx_hal_gpio.c:280:22
	ldr	r1, [r0]
.Ltmp52:
	@DEBUG_VALUE: HAL_GPIO_Init:temp <- undef
	.loc	5 282 12                        @ ../Drivers/STM32F3xx_HAL_Driver/Src/stm32f3xx_hal_gpio.c:282:12
	lsls	r2, r2, #10
	orr.w	r3, r1, r9
	it	pl
	bicpl.w	r3, r1, r9
.Ltmp53:
	@DEBUG_VALUE: HAL_GPIO_Init:temp <- $r3
	.loc	5 286 20                        @ ../Drivers/STM32F3xx_HAL_Driver/Src/stm32f3xx_hal_gpio.c:286:20
	str	r3, [r0]
	b	.LBB0_2
.Ltmp54:
	.p2align	2
.LBB0_12:
	@DEBUG_VALUE: HAL_GPIO_Init:GPIOx <- [DW_OP_plus_uconst 4] [$sp+0]
	.loc	5 292 1                         @ ../Drivers/STM32F3xx_HAL_Driver/Src/stm32f3xx_hal_gpio.c:292:1
	add	sp, #16
	pop.w	{r4, r5, r6, r7, r8, r9, r10, r11, pc}
.Ltmp55:
.Lfunc_end0:
	.size	HAL_GPIO_Init, .Lfunc_end0-HAL_GPIO_Init
	.cfi_endproc
	.cantunwind
	.fnend
                                        @ -- End function
	.section	.text.HAL_GPIO_DeInit,"ax",%progbits
	.hidden	HAL_GPIO_DeInit                 @ -- Begin function HAL_GPIO_DeInit
	.globl	HAL_GPIO_DeInit
	.p2align	2
	.type	HAL_GPIO_DeInit,%function
	.code	16                              @ @HAL_GPIO_DeInit
	.thumb_func
HAL_GPIO_DeInit:
.Lfunc_begin1:
	.loc	5 302 0                         @ ../Drivers/STM32F3xx_HAL_Driver/Src/stm32f3xx_hal_gpio.c:302:0
	.fnstart
	.cfi_startproc
@ %bb.0:
	@DEBUG_VALUE: HAL_GPIO_DeInit:GPIOx <- $r0
	@DEBUG_VALUE: HAL_GPIO_DeInit:GPIO_Pin <- $r1
	.save	{r4, r5, r6, r7, r8, r9, r10, r11, lr}
	push.w	{r4, r5, r6, r7, r8, r9, r10, r11, lr}
	.cfi_def_cfa_offset 36
	.cfi_offset lr, -4
	.cfi_offset r11, -8
	.cfi_offset r10, -12
	.cfi_offset r9, -16
	.cfi_offset r8, -20
	.cfi_offset r7, -24
	.cfi_offset r6, -28
	.cfi_offset r5, -32
	.cfi_offset r4, -36
	.pad	#8
	sub	sp, #8
	.cfi_def_cfa_offset 44
.Ltmp56:
	@DEBUG_VALUE: HAL_GPIO_DeInit:position <- 0
	movw	r2, #4096
	movt	r2, #18432
	movs	r3, #5
	cmp	r0, r2
	it	eq
	moveq	r3, #4
.Ltmp57:
	.loc	5 312 3 prologue_end            @ ../Drivers/STM32F3xx_HAL_Driver/Src/stm32f3xx_hal_gpio.c:312:3
	cmp	r1, #0
	str	r3, [sp, #4]                    @ 4-byte Spill
	beq	.LBB1_7
.Ltmp58:
@ %bb.1:
	@DEBUG_VALUE: HAL_GPIO_DeInit:position <- 0
	@DEBUG_VALUE: HAL_GPIO_DeInit:GPIO_Pin <- $r1
	@DEBUG_VALUE: HAL_GPIO_DeInit:GPIOx <- $r0
	.loc	5 0 3 is_stmt 0                 @ ../Drivers/STM32F3xx_HAL_Driver/Src/stm32f3xx_hal_gpio.c:0:3
	add.w	r2, r0, #-1207959552
	ror.w	r2, r2, #10
	ldr	r3, [sp, #4]                    @ 4-byte Reload
	movs	r4, #0
	movs	r6, #0
	movs	r7, #1
	cmp	r2, #4
	it	lo
	movlo	r3, r2
	str	r3, [sp, #4]                    @ 4-byte Spill
	str	r1, [sp]                        @ 4-byte Spill
	b	.LBB1_4
.Ltmp59:
	.p2align	2
.LBB1_2:                                @   in Loop: Header=BB1_4 Depth=1
	@DEBUG_VALUE: HAL_GPIO_DeInit:iocurrent <- $r8
	@DEBUG_VALUE: HAL_GPIO_DeInit:position <- [DW_OP_constu 1, DW_OP_minus, DW_OP_stack_value] $r7
	@DEBUG_VALUE: HAL_GPIO_DeInit:GPIOx <- $r0
	.loc	5 341 20 is_stmt 1              @ ../Drivers/STM32F3xx_HAL_Driver/Src/stm32f3xx_hal_gpio.c:341:20
	ldr	r1, [r0]
	.loc	5 341 43 is_stmt 0              @ ../Drivers/STM32F3xx_HAL_Driver/Src/stm32f3xx_hal_gpio.c:341:43
	movs	r3, #3
	lsls	r3, r4
	.loc	5 344 27 is_stmt 1              @ ../Drivers/STM32F3xx_HAL_Driver/Src/stm32f3xx_hal_gpio.c:344:27
	mvn	r5, #3
	.loc	5 341 20                        @ ../Drivers/STM32F3xx_HAL_Driver/Src/stm32f3xx_hal_gpio.c:341:20
	bics	r1, r3
	.loc	5 344 27                        @ ../Drivers/STM32F3xx_HAL_Driver/Src/stm32f3xx_hal_gpio.c:344:27
	and.w	r2, r5, r2, lsr #1
	.loc	5 341 20                        @ ../Drivers/STM32F3xx_HAL_Driver/Src/stm32f3xx_hal_gpio.c:341:20
	str	r1, [r0]
	.loc	5 344 7                         @ ../Drivers/STM32F3xx_HAL_Driver/Src/stm32f3xx_hal_gpio.c:344:7
	add	r2, r0
	.loc	5 344 77 is_stmt 0              @ ../Drivers/STM32F3xx_HAL_Driver/Src/stm32f3xx_hal_gpio.c:344:77
	and	r12, r6, #28
	.loc	5 344 34                        @ ../Drivers/STM32F3xx_HAL_Driver/Src/stm32f3xx_hal_gpio.c:344:34
	ldr	r5, [r2, #32]
	.loc	5 344 44                        @ ../Drivers/STM32F3xx_HAL_Driver/Src/stm32f3xx_hal_gpio.c:344:44
	movs	r1, #15
	lsl.w	r1, r1, r12
	.loc	5 344 34                        @ ../Drivers/STM32F3xx_HAL_Driver/Src/stm32f3xx_hal_gpio.c:344:34
	bic.w	r1, r5, r1
	str	r1, [r2, #32]
	.loc	5 347 20 is_stmt 1              @ ../Drivers/STM32F3xx_HAL_Driver/Src/stm32f3xx_hal_gpio.c:347:20
	ldr	r1, [r0, #12]
	bics	r1, r3
	str	r1, [r0, #12]
	.loc	5 350 22                        @ ../Drivers/STM32F3xx_HAL_Driver/Src/stm32f3xx_hal_gpio.c:350:22
	ldr	r1, [r0, #4]
	bic.w	r1, r1, lr
	str	r1, [r0, #4]
	.loc	5 353 22                        @ ../Drivers/STM32F3xx_HAL_Driver/Src/stm32f3xx_hal_gpio.c:353:22
	ldr	r1, [r0, #8]
	bics	r1, r3
	str	r1, [r0, #8]
	ldr	r1, [sp]                        @ 4-byte Reload
.Ltmp60:
.LBB1_3:                                @   in Loop: Header=BB1_4 Depth=1
	@DEBUG_VALUE: HAL_GPIO_DeInit:iocurrent <- $r8
	@DEBUG_VALUE: HAL_GPIO_DeInit:position <- [DW_OP_constu 1, DW_OP_minus, DW_OP_stack_value] $r7
	@DEBUG_VALUE: HAL_GPIO_DeInit:GPIOx <- $r0
	@DEBUG_VALUE: HAL_GPIO_DeInit:position <- $r7
	.loc	5 312 20                        @ ../Drivers/STM32F3xx_HAL_Driver/Src/stm32f3xx_hal_gpio.c:312:20
	lsrs.w	r2, r1, r7
	.loc	5 312 3 is_stmt 0               @ ../Drivers/STM32F3xx_HAL_Driver/Src/stm32f3xx_hal_gpio.c:312:3
	add.w	r7, r7, #1
.Ltmp61:
	add.w	r6, r6, #4
	add.w	r4, r4, #2
	beq	.LBB1_7
.Ltmp62:
.LBB1_4:                                @ =>This Inner Loop Header: Depth=1
	@DEBUG_VALUE: HAL_GPIO_DeInit:GPIOx <- $r0
	@DEBUG_VALUE: HAL_GPIO_DeInit:position <- [DW_OP_constu 1, DW_OP_minus, DW_OP_stack_value] $r7
	.loc	5 315 35 is_stmt 1              @ ../Drivers/STM32F3xx_HAL_Driver/Src/stm32f3xx_hal_gpio.c:315:35
	subs	r2, r7, #1
	movs	r3, #1
	lsl.w	lr, r3, r2
	.loc	5 315 28 is_stmt 0              @ ../Drivers/STM32F3xx_HAL_Driver/Src/stm32f3xx_hal_gpio.c:315:28
	ands.w	r8, lr, r1
.Ltmp63:
	@DEBUG_VALUE: HAL_GPIO_DeInit:iocurrent <- $r8
	.loc	5 317 9 is_stmt 1               @ ../Drivers/STM32F3xx_HAL_Driver/Src/stm32f3xx_hal_gpio.c:317:9
	beq	.LBB1_3
.Ltmp64:
@ %bb.5:                                @   in Loop: Header=BB1_4 Depth=1
	@DEBUG_VALUE: HAL_GPIO_DeInit:iocurrent <- $r8
	@DEBUG_VALUE: HAL_GPIO_DeInit:position <- [DW_OP_constu 1, DW_OP_minus, DW_OP_stack_value] $r7
	@DEBUG_VALUE: HAL_GPIO_DeInit:GPIOx <- $r0
	.loc	5 322 13                        @ ../Drivers/STM32F3xx_HAL_Driver/Src/stm32f3xx_hal_gpio.c:322:13
	movw	r1, #1024
.Ltmp65:
	@DEBUG_VALUE: HAL_GPIO_DeInit:GPIO_Pin <- [DW_OP_LLVM_entry_value 1] $r1
	movt	r1, #16385
	.loc	5 322 37 is_stmt 0              @ ../Drivers/STM32F3xx_HAL_Driver/Src/stm32f3xx_hal_gpio.c:322:37
	lsr.w	r12, r2, #2
	.loc	5 322 13                        @ ../Drivers/STM32F3xx_HAL_Driver/Src/stm32f3xx_hal_gpio.c:322:13
	sub.w	r9, r1, #1016
	movs	r3, #15
	ldr.w	r10, [r9, r12, lsl #2]
.Ltmp66:
	@DEBUG_VALUE: HAL_GPIO_DeInit:tmp <- $r10
	.loc	5 323 29 is_stmt 1              @ ../Drivers/STM32F3xx_HAL_Driver/Src/stm32f3xx_hal_gpio.c:323:29
	and	r11, r6, #12
.Ltmp67:
	.loc	5 324 41                        @ ../Drivers/STM32F3xx_HAL_Driver/Src/stm32f3xx_hal_gpio.c:324:41
	ldr	r5, [sp, #4]                    @ 4-byte Reload
.Ltmp68:
	.loc	5 323 22                        @ ../Drivers/STM32F3xx_HAL_Driver/Src/stm32f3xx_hal_gpio.c:323:22
	lsl.w	r1, r3, r11
	.loc	5 323 11 is_stmt 0              @ ../Drivers/STM32F3xx_HAL_Driver/Src/stm32f3xx_hal_gpio.c:323:11
	and.w	r3, r10, r1
.Ltmp69:
	@DEBUG_VALUE: HAL_GPIO_DeInit:tmp <- $r3
	.loc	5 324 41 is_stmt 1              @ ../Drivers/STM32F3xx_HAL_Driver/Src/stm32f3xx_hal_gpio.c:324:41
	lsl.w	r5, r5, r11
.Ltmp70:
	.loc	5 324 11 is_stmt 0              @ ../Drivers/STM32F3xx_HAL_Driver/Src/stm32f3xx_hal_gpio.c:324:11
	cmp	r3, r5
	bne	.LBB1_2
.Ltmp71:
@ %bb.6:                                @   in Loop: Header=BB1_4 Depth=1
	@DEBUG_VALUE: HAL_GPIO_DeInit:tmp <- $r3
	@DEBUG_VALUE: HAL_GPIO_DeInit:iocurrent <- $r8
	@DEBUG_VALUE: HAL_GPIO_DeInit:position <- [DW_OP_constu 1, DW_OP_minus, DW_OP_stack_value] $r7
	@DEBUG_VALUE: HAL_GPIO_DeInit:GPIOx <- $r0
	.loc	5 0 11                          @ ../Drivers/STM32F3xx_HAL_Driver/Src/stm32f3xx_hal_gpio.c:0:11
	movw	r5, #1024
	movt	r5, #16385
.Ltmp72:
	.loc	5 327 19 is_stmt 1              @ ../Drivers/STM32F3xx_HAL_Driver/Src/stm32f3xx_hal_gpio.c:327:19
	ldr	r3, [r5]
.Ltmp73:
	bic.w	r3, r3, r8
	str	r3, [r5]
	.loc	5 328 19                        @ ../Drivers/STM32F3xx_HAL_Driver/Src/stm32f3xx_hal_gpio.c:328:19
	ldr	r3, [r5, #4]
	bic.w	r3, r3, r8
	str	r3, [r5, #4]
	.loc	5 331 20                        @ ../Drivers/STM32F3xx_HAL_Driver/Src/stm32f3xx_hal_gpio.c:331:20
	ldr	r3, [r5, #8]
	bic.w	r3, r3, r8
	str	r3, [r5, #8]
	movw	r5, #1036
	movt	r5, #16385
	.loc	5 332 20                        @ ../Drivers/STM32F3xx_HAL_Driver/Src/stm32f3xx_hal_gpio.c:332:20
	ldr	r3, [r5]
	bic.w	r3, r3, r8
	str	r3, [r5]
.Ltmp74:
	@DEBUG_VALUE: HAL_GPIO_DeInit:tmp <- $r1
	.loc	5 336 40                        @ ../Drivers/STM32F3xx_HAL_Driver/Src/stm32f3xx_hal_gpio.c:336:40
	ldr.w	r3, [r9, r12, lsl #2]
	bic.w	r1, r3, r1
.Ltmp75:
	str.w	r1, [r9, r12, lsl #2]
	b	.LBB1_2
.Ltmp76:
	.p2align	2
.LBB1_7:
	@DEBUG_VALUE: HAL_GPIO_DeInit:GPIOx <- $r0
	.loc	5 358 1                         @ ../Drivers/STM32F3xx_HAL_Driver/Src/stm32f3xx_hal_gpio.c:358:1
	add	sp, #8
	pop.w	{r4, r5, r6, r7, r8, r9, r10, r11, pc}
.Ltmp77:
.Lfunc_end1:
	.size	HAL_GPIO_DeInit, .Lfunc_end1-HAL_GPIO_DeInit
	.cfi_endproc
	.cantunwind
	.fnend
                                        @ -- End function
	.section	.text.HAL_GPIO_ReadPin,"ax",%progbits
	.hidden	HAL_GPIO_ReadPin                @ -- Begin function HAL_GPIO_ReadPin
	.globl	HAL_GPIO_ReadPin
	.p2align	2
	.type	HAL_GPIO_ReadPin,%function
	.code	16                              @ @HAL_GPIO_ReadPin
	.thumb_func
HAL_GPIO_ReadPin:
.Lfunc_begin2:
	.loc	5 384 0                         @ ../Drivers/STM32F3xx_HAL_Driver/Src/stm32f3xx_hal_gpio.c:384:0
	.fnstart
	.cfi_startproc
@ %bb.0:
	@DEBUG_VALUE: HAL_GPIO_ReadPin:GPIOx <- $r0
	@DEBUG_VALUE: HAL_GPIO_ReadPin:GPIO_Pin <- $r1
	.loc	5 390 14 prologue_end           @ ../Drivers/STM32F3xx_HAL_Driver/Src/stm32f3xx_hal_gpio.c:390:14
	ldr	r0, [r0, #16]
.Ltmp78:
	@DEBUG_VALUE: HAL_GPIO_ReadPin:GPIOx <- [DW_OP_LLVM_entry_value 1] $r0
	.loc	5 390 18 is_stmt 0              @ ../Drivers/STM32F3xx_HAL_Driver/Src/stm32f3xx_hal_gpio.c:390:18
	ands	r0, r1
	.loc	5 390 30                        @ ../Drivers/STM32F3xx_HAL_Driver/Src/stm32f3xx_hal_gpio.c:390:30
	it	ne
	movne	r0, #1
.Ltmp79:
	@DEBUG_VALUE: HAL_GPIO_ReadPin:bitstatus <- undef
	.loc	5 398 3 is_stmt 1               @ ../Drivers/STM32F3xx_HAL_Driver/Src/stm32f3xx_hal_gpio.c:398:3
	bx	lr
.Ltmp80:
.Lfunc_end2:
	.size	HAL_GPIO_ReadPin, .Lfunc_end2-HAL_GPIO_ReadPin
	.cfi_endproc
	.cantunwind
	.fnend
                                        @ -- End function
	.section	.text.HAL_GPIO_WritePin,"ax",%progbits
	.hidden	HAL_GPIO_WritePin               @ -- Begin function HAL_GPIO_WritePin
	.globl	HAL_GPIO_WritePin
	.p2align	2
	.type	HAL_GPIO_WritePin,%function
	.code	16                              @ @HAL_GPIO_WritePin
	.thumb_func
HAL_GPIO_WritePin:
.Lfunc_begin3:
	.loc	5 418 0                         @ ../Drivers/STM32F3xx_HAL_Driver/Src/stm32f3xx_hal_gpio.c:418:0
	.fnstart
	.cfi_startproc
@ %bb.0:
	@DEBUG_VALUE: HAL_GPIO_WritePin:GPIOx <- $r0
	@DEBUG_VALUE: HAL_GPIO_WritePin:GPIO_Pin <- $r1
	@DEBUG_VALUE: HAL_GPIO_WritePin:PinState <- $r2
	movs	r3, #24
.Ltmp81:
	.loc	5 423 6 prologue_end            @ ../Drivers/STM32F3xx_HAL_Driver/Src/stm32f3xx_hal_gpio.c:423:6
	cmp	r2, #0
	it	eq
	moveq	r3, #40
.Ltmp82:
	.loc	5 0 0 is_stmt 0                 @ ../Drivers/STM32F3xx_HAL_Driver/Src/stm32f3xx_hal_gpio.c:0:0
	str	r1, [r0, r3]
.Ltmp83:
	.loc	5 431 1 is_stmt 1               @ ../Drivers/STM32F3xx_HAL_Driver/Src/stm32f3xx_hal_gpio.c:431:1
	bx	lr
.Ltmp84:
.Lfunc_end3:
	.size	HAL_GPIO_WritePin, .Lfunc_end3-HAL_GPIO_WritePin
	.cfi_endproc
	.cantunwind
	.fnend
                                        @ -- End function
	.section	.text.HAL_GPIO_TogglePin,"ax",%progbits
	.hidden	HAL_GPIO_TogglePin              @ -- Begin function HAL_GPIO_TogglePin
	.globl	HAL_GPIO_TogglePin
	.p2align	2
	.type	HAL_GPIO_TogglePin,%function
	.code	16                              @ @HAL_GPIO_TogglePin
	.thumb_func
HAL_GPIO_TogglePin:
.Lfunc_begin4:
	.loc	5 440 0                         @ ../Drivers/STM32F3xx_HAL_Driver/Src/stm32f3xx_hal_gpio.c:440:0
	.fnstart
	.cfi_startproc
@ %bb.0:
	@DEBUG_VALUE: HAL_GPIO_TogglePin:GPIOx <- $r0
	@DEBUG_VALUE: HAL_GPIO_TogglePin:GPIO_Pin <- $r1
	.loc	5 447 16 prologue_end           @ ../Drivers/STM32F3xx_HAL_Driver/Src/stm32f3xx_hal_gpio.c:447:16
	ldr	r2, [r0, #20]
.Ltmp85:
	@DEBUG_VALUE: HAL_GPIO_TogglePin:odr <- $r2
	.loc	5 450 23                        @ ../Drivers/STM32F3xx_HAL_Driver/Src/stm32f3xx_hal_gpio.c:450:23
	and.w	r3, r2, r1
	.loc	5 450 59 is_stmt 0              @ ../Drivers/STM32F3xx_HAL_Driver/Src/stm32f3xx_hal_gpio.c:450:59
	bics	r1, r2
.Ltmp86:
	@DEBUG_VALUE: HAL_GPIO_TogglePin:GPIO_Pin <- [DW_OP_LLVM_entry_value 1] $r1
	.loc	5 450 51                        @ ../Drivers/STM32F3xx_HAL_Driver/Src/stm32f3xx_hal_gpio.c:450:51
	orr.w	r1, r1, r3, lsl #16
	.loc	5 450 15                        @ ../Drivers/STM32F3xx_HAL_Driver/Src/stm32f3xx_hal_gpio.c:450:15
	str	r1, [r0, #24]
	.loc	5 451 1 is_stmt 1               @ ../Drivers/STM32F3xx_HAL_Driver/Src/stm32f3xx_hal_gpio.c:451:1
	bx	lr
.Ltmp87:
.Lfunc_end4:
	.size	HAL_GPIO_TogglePin, .Lfunc_end4-HAL_GPIO_TogglePin
	.cfi_endproc
	.cantunwind
	.fnend
                                        @ -- End function
	.section	.text.HAL_GPIO_LockPin,"ax",%progbits
	.hidden	HAL_GPIO_LockPin                @ -- Begin function HAL_GPIO_LockPin
	.globl	HAL_GPIO_LockPin
	.p2align	2
	.type	HAL_GPIO_LockPin,%function
	.code	16                              @ @HAL_GPIO_LockPin
	.thumb_func
HAL_GPIO_LockPin:
.Lfunc_begin5:
	.loc	5 465 0                         @ ../Drivers/STM32F3xx_HAL_Driver/Src/stm32f3xx_hal_gpio.c:465:0
	.fnstart
	.cfi_startproc
@ %bb.0:
	@DEBUG_VALUE: HAL_GPIO_LockPin:GPIOx <- $r0
	@DEBUG_VALUE: HAL_GPIO_LockPin:GPIO_Pin <- $r1
	.pad	#4
	sub	sp, #4
	.cfi_def_cfa_offset 4
	mov.w	r2, #65536
.Ltmp88:
	.loc	5 466 17 prologue_end           @ ../Drivers/STM32F3xx_HAL_Driver/Src/stm32f3xx_hal_gpio.c:466:17
	str	r2, [sp]
	.loc	5 473 7                         @ ../Drivers/STM32F3xx_HAL_Driver/Src/stm32f3xx_hal_gpio.c:473:7
	ldr	r2, [sp]
	orrs	r2, r1
	str	r2, [sp]
	.loc	5 475 17                        @ ../Drivers/STM32F3xx_HAL_Driver/Src/stm32f3xx_hal_gpio.c:475:17
	ldr	r2, [sp]
	.loc	5 475 15 is_stmt 0              @ ../Drivers/STM32F3xx_HAL_Driver/Src/stm32f3xx_hal_gpio.c:475:15
	str	r2, [r0, #28]
	.loc	5 477 15 is_stmt 1              @ ../Drivers/STM32F3xx_HAL_Driver/Src/stm32f3xx_hal_gpio.c:477:15
	str	r1, [r0, #28]
	.loc	5 479 17                        @ ../Drivers/STM32F3xx_HAL_Driver/Src/stm32f3xx_hal_gpio.c:479:17
	ldr	r1, [sp]
.Ltmp89:
	@DEBUG_VALUE: HAL_GPIO_LockPin:GPIO_Pin <- [DW_OP_LLVM_entry_value 1] $r1
	.loc	5 479 15 is_stmt 0              @ ../Drivers/STM32F3xx_HAL_Driver/Src/stm32f3xx_hal_gpio.c:479:15
	str	r1, [r0, #28]
	.loc	5 481 16 is_stmt 1              @ ../Drivers/STM32F3xx_HAL_Driver/Src/stm32f3xx_hal_gpio.c:481:16
	ldr	r1, [r0, #28]
	.loc	5 481 7 is_stmt 0               @ ../Drivers/STM32F3xx_HAL_Driver/Src/stm32f3xx_hal_gpio.c:481:7
	str	r1, [sp]
.Ltmp90:
	.loc	5 484 13 is_stmt 1              @ ../Drivers/STM32F3xx_HAL_Driver/Src/stm32f3xx_hal_gpio.c:484:13
	ldr	r0, [r0, #28]
.Ltmp91:
	@DEBUG_VALUE: HAL_GPIO_LockPin:GPIOx <- [DW_OP_LLVM_entry_value 1] $r0
	.loc	5 0 13 is_stmt 0                @ ../Drivers/STM32F3xx_HAL_Driver/Src/stm32f3xx_hal_gpio.c:0:13
	movs	r1, #1
	bic.w	r0, r1, r0, lsr #16
.Ltmp92:
	.loc	5 492 1 is_stmt 1               @ ../Drivers/STM32F3xx_HAL_Driver/Src/stm32f3xx_hal_gpio.c:492:1
	add	sp, #4
	bx	lr
.Ltmp93:
.Lfunc_end5:
	.size	HAL_GPIO_LockPin, .Lfunc_end5-HAL_GPIO_LockPin
	.cfi_endproc
	.cantunwind
	.fnend
                                        @ -- End function
	.section	.text.HAL_GPIO_EXTI_IRQHandler,"ax",%progbits
	.hidden	HAL_GPIO_EXTI_IRQHandler        @ -- Begin function HAL_GPIO_EXTI_IRQHandler
	.globl	HAL_GPIO_EXTI_IRQHandler
	.p2align	2
	.type	HAL_GPIO_EXTI_IRQHandler,%function
	.code	16                              @ @HAL_GPIO_EXTI_IRQHandler
	.thumb_func
HAL_GPIO_EXTI_IRQHandler:
.Lfunc_begin6:
	.loc	5 500 0                         @ ../Drivers/STM32F3xx_HAL_Driver/Src/stm32f3xx_hal_gpio.c:500:0
	.fnstart
	.cfi_startproc
@ %bb.0:
	@DEBUG_VALUE: HAL_GPIO_EXTI_IRQHandler:GPIO_Pin <- $r0
	movw	r1, #1044
	movt	r1, #16385
.Ltmp94:
	.loc	5 502 6 prologue_end            @ ../Drivers/STM32F3xx_HAL_Driver/Src/stm32f3xx_hal_gpio.c:502:6
	ldr	r2, [r1]
.Ltmp95:
	.loc	5 502 6 is_stmt 0               @ ../Drivers/STM32F3xx_HAL_Driver/Src/stm32f3xx_hal_gpio.c:502:6
	tst	r2, r0
.Ltmp96:
	.loc	5 504 5 is_stmt 1               @ ../Drivers/STM32F3xx_HAL_Driver/Src/stm32f3xx_hal_gpio.c:504:5
	ite	ne
	strne	r0, [r1]
.Ltmp97:
	.loc	5 507 1                         @ ../Drivers/STM32F3xx_HAL_Driver/Src/stm32f3xx_hal_gpio.c:507:1
	bxeq	lr
.Ltmp98:
	.loc	5 505 5                         @ ../Drivers/STM32F3xx_HAL_Driver/Src/stm32f3xx_hal_gpio.c:505:5
	b	HAL_GPIO_EXTI_Callback
.Ltmp99:
.Lfunc_end6:
	.size	HAL_GPIO_EXTI_IRQHandler, .Lfunc_end6-HAL_GPIO_EXTI_IRQHandler
	.cfi_endproc
	.cantunwind
	.fnend
                                        @ -- End function
	.section	.text.HAL_GPIO_EXTI_Callback,"ax",%progbits
	.hidden	HAL_GPIO_EXTI_Callback          @ -- Begin function HAL_GPIO_EXTI_Callback
	.weak	HAL_GPIO_EXTI_Callback
	.p2align	2
	.type	HAL_GPIO_EXTI_Callback,%function
	.code	16                              @ @HAL_GPIO_EXTI_Callback
	.thumb_func
HAL_GPIO_EXTI_Callback:
.Lfunc_begin7:
	.loc	5 515 0                         @ ../Drivers/STM32F3xx_HAL_Driver/Src/stm32f3xx_hal_gpio.c:515:0
	.fnstart
	.cfi_startproc
@ %bb.0:
	@DEBUG_VALUE: HAL_GPIO_EXTI_Callback:GPIO_Pin <- $r0
	.loc	5 522 1 prologue_end            @ ../Drivers/STM32F3xx_HAL_Driver/Src/stm32f3xx_hal_gpio.c:522:1
	bx	lr
.Ltmp100:
.Lfunc_end7:
	.size	HAL_GPIO_EXTI_Callback, .Lfunc_end7-HAL_GPIO_EXTI_Callback
	.cfi_endproc
	.cantunwind
	.fnend
                                        @ -- End function
	.section	".note.GNU-stack","",%progbits
	.eabi_attribute	30, 2	@ Tag_ABI_optimization_goals
	.ARM_attribute	16, 1	@ Tag_AV_eba